target datalayout = "e-m:e-p270:32:32-p271:32:32-p272:64:64-i64:64-i128:128-f80:128-n8:16:32:64-S128"
target triple = "x86_64-pc-linux-gnu"

%class.XMMRegister = type { i32 }
%class.KRegister = type { i32 }
%class.StubCodeGenerator = type { ptr, i8, ptr }

; Function Attrs: mustprogress nounwind uwtable
define hidden void @_ZN13StubGenerator9ev_add128E11XMMRegisterS0_S0_i9KRegisterS0_(ptr noundef nonnull align 8 dereferenceable(24) %0, i32 %1, i32 %2, i32 %3, i32 noundef %4, i32 %5, i32 %6) #1 align 2 {
  %8 = alloca %class.XMMRegister, align 4
  %9 = alloca %class.XMMRegister, align 4
  %10 = alloca %class.XMMRegister, align 4
  %11 = alloca %class.KRegister, align 4
  %12 = alloca %class.XMMRegister, align 4
  %13 = alloca ptr, align 8
  %14 = alloca i32, align 4
  %15 = alloca %class.XMMRegister, align 4
  %16 = alloca %class.XMMRegister, align 4
  %17 = alloca %class.XMMRegister, align 4
  %18 = alloca %class.KRegister, align 4
  %19 = alloca %class.XMMRegister, align 4
  %20 = alloca %class.XMMRegister, align 4
  %21 = alloca %class.KRegister, align 4
  %22 = alloca %class.KRegister, align 4
  %23 = alloca %class.XMMRegister, align 4
  %24 = alloca %class.KRegister, align 4
  %25 = alloca %class.XMMRegister, align 4
  %26 = alloca %class.XMMRegister, align 4
  %27 = getelementptr inbounds %class.XMMRegister, ptr %8, i32 0, i32 0
  store i32 %1, ptr %27, align 4
  %28 = getelementptr inbounds %class.XMMRegister, ptr %9, i32 0, i32 0
  store i32 %2, ptr %28, align 4
  %29 = getelementptr inbounds %class.XMMRegister, ptr %10, i32 0, i32 0
  store i32 %3, ptr %29, align 4
  %30 = getelementptr inbounds %class.KRegister, ptr %11, i32 0, i32 0
  store i32 %5, ptr %30, align 4
  %31 = getelementptr inbounds %class.XMMRegister, ptr %12, i32 0, i32 0
  store i32 %6, ptr %31, align 4
  store ptr %0, ptr %13, align 8
  store i32 %4, ptr %14, align 4
  %32 = load ptr, ptr %13, align 8
  %33 = getelementptr inbounds %class.StubCodeGenerator, ptr %32, i32 0, i32 2
  %34 = load ptr, ptr %33, align 8
  call void @llvm.memcpy.p0.p0.i64(ptr align 4 %15, ptr align 4 %8, i64 4, i1 false)
  call void @llvm.memcpy.p0.p0.i64(ptr align 4 %16, ptr align 4 %9, i64 4, i1 false)
  call void @llvm.memcpy.p0.p0.i64(ptr align 4 %17, ptr align 4 %10, i64 4, i1 false)
  %35 = load i32, ptr %14, align 4
  %36 = getelementptr inbounds %class.XMMRegister, ptr %15, i32 0, i32 0
  %37 = load i32, ptr %36, align 4
  %38 = getelementptr inbounds %class.XMMRegister, ptr %16, i32 0, i32 0
  %39 = load i32, ptr %38, align 4
  %40 = getelementptr inbounds %class.XMMRegister, ptr %17, i32 0, i32 0
  %41 = load i32, ptr %40, align 4
  call void @_ZN9Assembler6vpaddqE11XMMRegisterS0_S0_i(ptr noundef nonnull align 8 dereferenceable(40) %34, i32 %37, i32 %39, i32 %41, i32 noundef %35)
  %42 = getelementptr inbounds %class.StubCodeGenerator, ptr %32, i32 0, i32 2
  %43 = load ptr, ptr %42, align 8
  call void @llvm.memcpy.p0.p0.i64(ptr align 4 %18, ptr align 4 %11, i64 4, i1 false)
  call void @llvm.memcpy.p0.p0.i64(ptr align 4 %19, ptr align 4 %8, i64 4, i1 false)
  call void @llvm.memcpy.p0.p0.i64(ptr align 4 %20, ptr align 4 %10, i64 4, i1 false)
  %44 = load i32, ptr %14, align 4
  %45 = getelementptr inbounds %class.KRegister, ptr %18, i32 0, i32 0
  %46 = load i32, ptr %45, align 4
  %47 = getelementptr inbounds %class.XMMRegister, ptr %19, i32 0, i32 0
  %48 = load i32, ptr %47, align 4
  %49 = getelementptr inbounds %class.XMMRegister, ptr %20, i32 0, i32 0
  %50 = load i32, ptr %49, align 4
  call void @_ZN9Assembler8evpcmpuqE9KRegister11XMMRegisterS1_NS_19ComparisonPredicateEi(ptr noundef nonnull align 8 dereferenceable(40) %43, i32 %46, i32 %48, i32 %50, i32 noundef 1, i32 noundef %44)
  %51 = getelementptr inbounds %class.StubCodeGenerator, ptr %32, i32 0, i32 2
  %52 = load ptr, ptr %51, align 8
  call void @llvm.memcpy.p0.p0.i64(ptr align 4 %21, ptr align 4 %11, i64 4, i1 false)
  call void @llvm.memcpy.p0.p0.i64(ptr align 4 %22, ptr align 4 %11, i64 4, i1 false)
  %53 = getelementptr inbounds %class.KRegister, ptr %21, i32 0, i32 0
  %54 = load i32, ptr %53, align 4
  %55 = getelementptr inbounds %class.KRegister, ptr %22, i32 0, i32 0
  %56 = load i32, ptr %55, align 4
  call void @_ZN9Assembler9kshiftlblE9KRegisterS0_i(ptr noundef nonnull align 8 dereferenceable(40) %52, i32 %54, i32 %56, i32 noundef 1)
  %57 = getelementptr inbounds %class.StubCodeGenerator, ptr %32, i32 0, i32 2
  %58 = load ptr, ptr %57, align 8
  call void @llvm.memcpy.p0.p0.i64(ptr align 4 %23, ptr align 4 %8, i64 4, i1 false)
  call void @llvm.memcpy.p0.p0.i64(ptr align 4 %24, ptr align 4 %11, i64 4, i1 false)
  call void @llvm.memcpy.p0.p0.i64(ptr align 4 %25, ptr align 4 %8, i64 4, i1 false)
  call void @llvm.memcpy.p0.p0.i64(ptr align 4 %26, ptr align 4 %12, i64 4, i1 false)
  %59 = load i32, ptr %14, align 4
  %60 = getelementptr inbounds %class.XMMRegister, ptr %23, i32 0, i32 0
  %61 = load i32, ptr %60, align 4
  %62 = getelementptr inbounds %class.KRegister, ptr %24, i32 0, i32 0
  %63 = load i32, ptr %62, align 4
  %64 = getelementptr inbounds %class.XMMRegister, ptr %25, i32 0, i32 0
  %65 = load i32, ptr %64, align 4
  %66 = getelementptr inbounds %class.XMMRegister, ptr %26, i32 0, i32 0
  %67 = load i32, ptr %66, align 4
  call void @_ZN9Assembler7evpaddqE11XMMRegister9KRegisterS0_S0_bi(ptr noundef nonnull align 8 dereferenceable(40) %58, i32 %61, i32 %63, i32 %65, i32 %67, i1 noundef zeroext true, i32 noundef %59)
  ret void
}