; Function Attrs: mustprogress nounwind uwtable
define hidden void @_ZN13StubGenerator9ev_add128E11XMMRegisterS0_S0_i9KRegisterS0_(ptr nocapture noundef nonnull readonly align 8 dereferenceable(24) %0, i32 %1, i32 %2, i32 %3, i32 noundef %4, i32 %5, i32 %6) local_unnamed_addr #0 align 2 {
  %8 = getelementptr inbounds i8, ptr %0, i64 16
  %9 = load ptr, ptr %8, align 8
  tail call void @_ZN9Assembler6vpaddqE11XMMRegisterS0_S0_i(ptr noundef nonnull align 8 dereferenceable(40) %9, i32 %1, i32 %2, i32 %3, i32 noundef %4) #7
  %10 = load ptr, ptr %8, align 8
  tail call void @_ZN9Assembler8evpcmpuqE9KRegister11XMMRegisterS1_NS_19ComparisonPredicateEi(ptr noundef nonnull align 8 dereferenceable(40) %10, i32 %5, i32 %1, i32 %3, i32 noundef 1, i32 noundef %4) #7
  %11 = load ptr, ptr %8, align 8
  tail call void @_ZN9Assembler9kshiftlblE9KRegisterS0_i(ptr noundef nonnull align 8 dereferenceable(40) %11, i32 %5, i32 %5, i32 noundef 1) #7
  %12 = load ptr, ptr %8, align 8
  tail call void @_ZN9Assembler7evpaddqE11XMMRegister9KRegisterS0_S0_bi(ptr noundef nonnull align 8 dereferenceable(40) %12, i32 %1, i32 %5, i32 %1, i32 %6, i1 noundef zeroext true, i32 noundef %4) #7
  ret void
}